; Function Attrs: nofree norecurse nosync nounwind memory(read, argmem: readwrite, inaccessiblemem: none) uwtable
define internal void @yuv2nv20cX_BE_c(i32 %0, ptr readnone captures(none) %1, ptr noundef readonly captures(none) %2, i32 noundef %3, ptr noundef readonly captures(none) %4, ptr noundef readonly captures(none) %5, ptr noundef writeonly captures(none) %6, i32 noundef %7) #3 {
  %invariant.gep.i = getelementptr inbounds nuw i8, ptr %6, i64 2
  %9 = icmp sgt i32 %7, 0
  br i1 %9, label %.lr.ph9.i, label %yuv2p01xcX_c.exit

.lr.ph9.i:                                        ; preds = %8
  %10 = icmp sgt i32 %3, 0
  %wide.trip.count36.i = zext nneg i32 %7 to i64
  br i1 %10, label %.lr.ph.us17.preheader.i, label %.lr.ph9.split.split.i

.lr.ph.us17.preheader.i:                          ; preds = %.lr.ph9.i
  %wide.trip.count31.i = zext nneg i32 %3 to i64
  br label %.lr.ph.us17.i

.lr.ph.us17.i:                                    ; preds = %._crit_edge.us18.i, %.lr.ph.us17.preheader.i
  %indvars.iv33.i = phi i64 [ 0, %.lr.ph.us17.preheader.i ], [ %indvars.iv.next34.i, %._crit_edge.us18.i ]
  br label %11

11:                                               ; preds = %11, %.lr.ph.us17.i
  %indvars.iv28.i = phi i64 [ 0, %.lr.ph.us17.i ], [ %indvars.iv.next29.i, %11 ]
  %.03.us14.i = phi i32 [ 65536, %.lr.ph.us17.i ], [ %28, %11 ]
  %.0472.us15.i = phi i32 [ 65536, %.lr.ph.us17.i ], [ %21, %11 ]
  %12 = getelementptr inbounds nuw ptr, ptr %4, i64 %indvars.iv28.i
  %13 = load ptr, ptr %12, align 8, !tbaa !43
  %14 = getelementptr inbounds nuw i16, ptr %13, i64 %indvars.iv33.i
  %15 = load i16, ptr %14, align 2, !tbaa !39
  %16 = sext i16 %15 to i32
  %17 = getelementptr inbounds nuw i16, ptr %2, i64 %indvars.iv28.i
  %18 = load i16, ptr %17, align 2, !tbaa !39
  %19 = sext i16 %18 to i32
  %20 = mul nsw i32 %19, %16
  %21 = add nsw i32 %20, %.0472.us15.i
  %22 = getelementptr inbounds nuw ptr, ptr %5, i64 %indvars.iv28.i
  %23 = load ptr, ptr %22, align 8, !tbaa !43
  %24 = getelementptr inbounds nuw i16, ptr %23, i64 %indvars.iv33.i
  %25 = load i16, ptr %24, align 2, !tbaa !39
  %26 = sext i16 %25 to i32
  %27 = mul nsw i32 %26, %19
  %28 = add nsw i32 %27, %.03.us14.i
  %indvars.iv.next29.i = add nuw nsw i64 %indvars.iv28.i, 1
  %exitcond32.not.i = icmp eq i64 %indvars.iv.next29.i, %wide.trip.count31.i
  br i1 %exitcond32.not.i, label %._crit_edge.us18.i, label %11, !llvm.loop !46

._crit_edge.us18.i:                               ; preds = %11
  %29 = ashr i32 %21, 17
  %30 = tail call i32 @llvm.smax.i32(i32 %29, i32 0)
  %31 = tail call i32 @llvm.umin.i32(i32 %30, i32 1023)
  %32 = trunc nuw nsw i32 %31 to i16
  %33 = tail call i16 @llvm.bswap.i16(i16 %32)
  %34 = shl nuw nsw i64 %indvars.iv33.i, 1
  %35 = getelementptr inbounds nuw i16, ptr %6, i64 %34
  store i16 %33, ptr %35, align 1, !tbaa !41
  %36 = ashr i32 %28, 17
  %37 = tail call i32 @llvm.smax.i32(i32 %36, i32 0)
  %38 = tail call i32 @llvm.umin.i32(i32 %37, i32 1023)
  %39 = trunc nuw nsw i32 %38 to i16
  %40 = tail call i16 @llvm.bswap.i16(i16 %39)
  %gep.us.i = getelementptr inbounds nuw i16, ptr %invariant.gep.i, i64 %34
  store i16 %40, ptr %gep.us.i, align 1, !tbaa !41
  %indvars.iv.next34.i = add nuw nsw i64 %indvars.iv33.i, 1
  %exitcond37.not.i = icmp eq i64 %indvars.iv.next34.i, %wide.trip.count36.i
  br i1 %exitcond37.not.i, label %yuv2p01xcX_c.exit, label %.lr.ph.us17.i, !llvm.loop !47

.lr.ph9.split.split.i:                            ; preds = %.lr.ph9.i
  %41 = shl nuw nsw i64 %wide.trip.count36.i, 2
  tail call void @llvm.memset.p0.i64(ptr align 1 %6, i8 0, i64 %41, i1 false), !tbaa !41
  br label %yuv2p01xcX_c.exit

yuv2p01xcX_c.exit:                                ; preds = %._crit_edge.us18.i, %.lr.ph9.split.split.i, %8
  ret void
}